target datalayout = "e-m:e-p270:32:32-p271:32:32-p272:64:64-i64:64-i128:128-f80:128-n8:16:32:64-S128"
target triple = "x86_64-pc-linux-gnu"

%struct._zend_executor_globals = type { %struct._zval_struct, %struct._zval_struct, [32 x ptr], ptr, ptr, %struct._zend_array, %struct._zend_array, ptr, i32, i32, ptr, ptr, ptr, ptr, ptr, ptr, i64, ptr, ptr, i32, i32, i64, i32, i32, i32, i8, i8, %struct.zend_atomic_bool_s, %struct.zend_atomic_bool_s, ptr, i64, ptr, ptr, %struct._zend_array, %struct._zend_array, i32, i8, %struct._zval_struct, %struct._zval_struct, %struct._zend_stack, %struct._zend_stack, %struct._zend_stack, ptr, i32, i32, i64, ptr, ptr, ptr, %struct._zend_objects_store, ptr, ptr, ptr, [3 x %struct._zend_op], ptr, i8, i8, i64, i32, i32, ptr, [16 x %struct._HashTableIterator], ptr, %union._zend_function, %struct._zend_op, %struct._zend_array, i64, %struct.zend_get_gc_buffer, ptr, ptr, ptr, i64, i8, i32, ptr, ptr, i64, %struct._zend_call_stack, i64, i64, [6 x ptr] }
%struct.zend_atomic_bool_s = type { i8 }
%struct._zval_struct = type { %union._zend_value, %union.anon, %union.anon.2 }
%union._zend_value = type { i64 }
%union.anon = type { i32 }
%union.anon.2 = type { i32 }
%struct._zend_stack = type { i32, i32, i32, ptr }
%struct._zend_objects_store = type { ptr, i32, i32, i32 }
%struct._HashTableIterator = type { ptr, i32, i32 }
%union._zend_function = type { %struct._zend_op_array }
%struct._zend_op_array = type { i8, [3 x i8], i32, ptr, ptr, ptr, i32, i32, ptr, ptr, ptr, ptr, i32, i32, i32, i32, ptr, ptr, ptr, ptr, ptr, i32, i32, ptr, ptr, ptr, i32, i32, i32, i32, ptr, ptr, [6 x ptr] }
%struct._zend_op = type { ptr, %union._znode_op, %union._znode_op, %union._znode_op, i32, i32, i8, i8, i8, i8 }
%union._znode_op = type { i32 }
%struct._zend_array = type { %struct._zend_refcounted_h, %union.anon.4, i32, %union.anon.6, i32, i32, i32, i32, i64, ptr }
%struct._zend_refcounted_h = type { i32, %union.anon.3 }
%union.anon.3 = type { i32 }
%union.anon.4 = type { i32 }
%union.anon.6 = type { ptr }
%struct.zend_get_gc_buffer = type { ptr, ptr, ptr }
%struct._zend_call_stack = type { ptr, i64 }
%struct._zend_ini_entry = type { ptr, ptr, ptr, ptr, ptr, ptr, ptr, ptr, i32, i8, i8, i8 }

@executor_globals = external global %struct._zend_executor_globals, align 8

; Function Attrs: nounwind uwtable
define i32 @zend_alter_ini_entry_ex(ptr noundef %0, ptr noundef %1, i32 noundef %2, i32 noundef %3, i1 noundef zeroext %4) #0 {
  %6 = alloca ptr, align 8
  %7 = alloca ptr, align 8
  %8 = alloca ptr, align 8
  %9 = alloca i32, align 4
  %10 = alloca i32, align 4
  %11 = alloca i32, align 4
  %12 = alloca i32, align 4
  %13 = alloca i32, align 4
  %14 = alloca ptr, align 8
  %15 = alloca ptr, align 8
  %16 = alloca ptr, align 8
  %17 = alloca ptr, align 8
  %18 = alloca ptr, align 8
  %19 = alloca ptr, align 8
  %20 = alloca ptr, align 8
  %21 = alloca ptr, align 8
  %22 = alloca ptr, align 8
  %23 = alloca ptr, align 8
  %24 = alloca ptr, align 8
  %25 = alloca %struct._zval_struct, align 8
  %26 = alloca ptr, align 8
  %27 = alloca i32, align 4
  %28 = alloca ptr, align 8
  %29 = alloca ptr, align 8
  %30 = alloca i32, align 4
  %31 = alloca i32, align 4
  %32 = alloca i8, align 1
  %33 = alloca ptr, align 8
  %34 = alloca ptr, align 8
  %35 = alloca i8, align 1
  %36 = alloca i8, align 1
  store ptr %0, ptr %28, align 8
  store ptr %1, ptr %29, align 8
  store i32 %2, ptr %30, align 4
  store i32 %3, ptr %31, align 4
  %37 = zext i1 %4 to i8
  store i8 %37, ptr %32, align 1
  %38 = load ptr, ptr getelementptr inbounds (%struct._zend_executor_globals, ptr @executor_globals, i32 0, i32 46), align 8
  %39 = load ptr, ptr %28, align 8
  store ptr %38, ptr %15, align 8
  store ptr %39, ptr %16, align 8
  %40 = load ptr, ptr %15, align 8
  %41 = load ptr, ptr %16, align 8
  %42 = call ptr @zend_hash_find(ptr noundef %40, ptr noundef %41) #13
  store ptr %42, ptr %17, align 8
  %43 = load ptr, ptr %17, align 8
  %44 = icmp ne ptr %43, null
  br i1 %44, label %45, label %51

45:                                               ; preds = %5
  %46 = load ptr, ptr %17, align 8
  %47 = load ptr, ptr %46, align 8
  %48 = icmp ne ptr %47, null
  call void @llvm.assume(i1 %48)
  %49 = load ptr, ptr %17, align 8
  %50 = load ptr, ptr %49, align 8
  store ptr %50, ptr %14, align 8
  br label %52

51:                                               ; preds = %5
  store ptr null, ptr %14, align 8
  br label %52

52:                                               ; preds = %51, %45
  %53 = load ptr, ptr %14, align 8
  store ptr %53, ptr %33, align 8
  %54 = icmp eq ptr %53, null
  br i1 %54, label %55, label %56

55:                                               ; preds = %52
  store i32 -1, ptr %27, align 4
  br label %248

56:                                               ; preds = %52
  %57 = load ptr, ptr %33, align 8
  %58 = getelementptr inbounds %struct._zend_ini_entry, ptr %57, i32 0, i32 9
  %59 = load i8, ptr %58, align 4
  store i8 %59, ptr %35, align 1
  %60 = load ptr, ptr %33, align 8
  %61 = getelementptr inbounds %struct._zend_ini_entry, ptr %60, i32 0, i32 11
  %62 = load i8, ptr %61, align 2
  %63 = icmp ne i8 %62, 0
  %64 = zext i1 %63 to i8
  store i8 %64, ptr %36, align 1
  %65 = load i32, ptr %31, align 4
  %66 = icmp eq i32 %65, 4
  br i1 %66, label %67, label %73

67:                                               ; preds = %56
  %68 = load i32, ptr %30, align 4
  %69 = icmp eq i32 %68, 4
  br i1 %69, label %70, label %73

70:                                               ; preds = %67
  %71 = load ptr, ptr %33, align 8
  %72 = getelementptr inbounds %struct._zend_ini_entry, ptr %71, i32 0, i32 9
  store i8 4, ptr %72, align 4
  br label %73

73:                                               ; preds = %70, %67, %56
  %74 = load i8, ptr %32, align 1
  %75 = trunc i8 %74 to i1
  br i1 %75, label %86, label %76

76:                                               ; preds = %73
  %77 = load ptr, ptr %33, align 8
  %78 = getelementptr inbounds %struct._zend_ini_entry, ptr %77, i32 0, i32 9
  %79 = load i8, ptr %78, align 4
  %80 = zext i8 %79 to i32
  %81 = load i32, ptr %30, align 4
  %82 = and i32 %80, %81
  %83 = icmp ne i32 %82, 0
  br i1 %83, label %85, label %84

84:                                               ; preds = %76
  store i32 -1, ptr %27, align 4
  br label %248

85:                                               ; preds = %76
  br label %86

86:                                               ; preds = %85, %73
  %87 = load ptr, ptr getelementptr inbounds (%struct._zend_executor_globals, ptr @executor_globals, i32 0, i32 47), align 8
  %88 = icmp ne ptr %87, null
  br i1 %88, label %92, label %89

89:                                               ; preds = %86
  %90 = call noalias ptr @_emalloc_56()
  store ptr %90, ptr getelementptr inbounds (%struct._zend_executor_globals, ptr @executor_globals, i32 0, i32 47), align 8
  %91 = load ptr, ptr getelementptr inbounds (%struct._zend_executor_globals, ptr @executor_globals, i32 0, i32 47), align 8
  call void @_zend_hash_init(ptr noundef %91, i32 noundef 8, ptr noundef null, i1 noundef zeroext false)
  br label %92

92:                                               ; preds = %89, %86
  %93 = load i8, ptr %36, align 1
  %94 = trunc i8 %93 to i1
  br i1 %94, label %126, label %95

95:                                               ; preds = %92
  %96 = load ptr, ptr %33, align 8
  %97 = getelementptr inbounds %struct._zend_ini_entry, ptr %96, i32 0, i32 5
  %98 = load ptr, ptr %97, align 8
  %99 = load ptr, ptr %33, align 8
  %100 = getelementptr inbounds %struct._zend_ini_entry, ptr %99, i32 0, i32 6
  store ptr %98, ptr %100, align 8
  %101 = load i8, ptr %35, align 1
  %102 = load ptr, ptr %33, align 8
  %103 = getelementptr inbounds %struct._zend_ini_entry, ptr %102, i32 0, i32 10
  store i8 %101, ptr %103, align 1
  %104 = load ptr, ptr %33, align 8
  %105 = getelementptr inbounds %struct._zend_ini_entry, ptr %104, i32 0, i32 11
  store i8 1, ptr %105, align 2
  %106 = load ptr, ptr getelementptr inbounds (%struct._zend_executor_globals, ptr @executor_globals, i32 0, i32 47), align 8
  %107 = load ptr, ptr %33, align 8
  %108 = getelementptr inbounds %struct._zend_ini_entry, ptr %107, i32 0, i32 0
  %109 = load ptr, ptr %108, align 8
  %110 = load ptr, ptr %33, align 8
  store ptr %106, ptr %22, align 8
  store ptr %109, ptr %23, align 8
  store ptr %110, ptr %24, align 8
  %111 = load ptr, ptr %24, align 8
  store ptr %111, ptr %25, align 8
  %112 = getelementptr inbounds %struct._zval_struct, ptr %25, i32 0, i32 1
  store i32 13, ptr %112, align 8
  %113 = load ptr, ptr %22, align 8
  %114 = load ptr, ptr %23, align 8
  %115 = call ptr @zend_hash_add(ptr noundef %113, ptr noundef %114, ptr noundef %25) #13
  store ptr %115, ptr %26, align 8
  %116 = load ptr, ptr %26, align 8
  %117 = icmp ne ptr %116, null
  br i1 %117, label %118, label %124

118:                                              ; preds = %95
  %119 = load ptr, ptr %26, align 8
  %120 = load ptr, ptr %119, align 8
  %121 = icmp ne ptr %120, null
  call void @llvm.assume(i1 %121)
  %122 = load ptr, ptr %26, align 8
  %123 = load ptr, ptr %122, align 8
  store ptr %123, ptr %21, align 8
  br label %125

124:                                              ; preds = %95
  store ptr null, ptr %21, align 8
  br label %125

125:                                              ; preds = %124, %118
  br label %126

126:                                              ; preds = %125, %92
  %127 = load ptr, ptr %29, align 8
  store ptr %127, ptr %20, align 8
  %128 = load ptr, ptr %20, align 8
  %129 = getelementptr inbounds %struct._zend_refcounted_h, ptr %128, i32 0, i32 1
  %130 = load i32, ptr %129, align 4
  store i32 %130, ptr %9, align 4
  %131 = load i32, ptr %9, align 4
  %132 = and i32 %131, 1008
  %133 = and i32 %132, 64
  %134 = icmp ne i32 %133, 0
  br i1 %134, label %140, label %135

135:                                              ; preds = %126
  %136 = load ptr, ptr %20, align 8
  store ptr %136, ptr %6, align 8
  %137 = load ptr, ptr %6, align 8
  %138 = load i32, ptr %137, align 4
  %139 = add i32 %138, 1
  store i32 %139, ptr %137, align 4
  br label %140

140:                                              ; preds = %135, %126
  %141 = load ptr, ptr %20, align 8
  store ptr %141, ptr %34, align 8
  %142 = load ptr, ptr %33, align 8
  %143 = getelementptr inbounds %struct._zend_ini_entry, ptr %142, i32 0, i32 1
  %144 = load ptr, ptr %143, align 8
  %145 = icmp ne ptr %144, null
  br i1 %145, label %146, label %164

146:                                              ; preds = %140
  %147 = load ptr, ptr %33, align 8
  %148 = getelementptr inbounds %struct._zend_ini_entry, ptr %147, i32 0, i32 1
  %149 = load ptr, ptr %148, align 8
  %150 = load ptr, ptr %33, align 8
  %151 = load ptr, ptr %34, align 8
  %152 = load ptr, ptr %33, align 8
  %153 = getelementptr inbounds %struct._zend_ini_entry, ptr %152, i32 0, i32 2
  %154 = load ptr, ptr %153, align 8
  %155 = load ptr, ptr %33, align 8
  %156 = getelementptr inbounds %struct._zend_ini_entry, ptr %155, i32 0, i32 3
  %157 = load ptr, ptr %156, align 8
  %158 = load ptr, ptr %33, align 8
  %159 = getelementptr inbounds %struct._zend_ini_entry, ptr %158, i32 0, i32 4
  %160 = load ptr, ptr %159, align 8
  %161 = load i32, ptr %31, align 4
  %162 = call i32 %149(ptr noundef %150, ptr noundef %151, ptr noundef %154, ptr noundef %157, ptr noundef %160, i32 noundef %161)
  %163 = icmp eq i32 %162, 0
  br i1 %163, label %164, label %214

164:                                              ; preds = %146, %140
  %165 = load i8, ptr %36, align 1
  %166 = trunc i8 %165 to i1
  br i1 %166, label %167, label %210

167:                                              ; preds = %164
  %168 = load ptr, ptr %33, align 8
  %169 = getelementptr inbounds %struct._zend_ini_entry, ptr %168, i32 0, i32 6
  %170 = load ptr, ptr %169, align 8
  %171 = load ptr, ptr %33, align 8
  %172 = getelementptr inbounds %struct._zend_ini_entry, ptr %171, i32 0, i32 5
  %173 = load ptr, ptr %172, align 8
  %174 = icmp ne ptr %170, %173
  br i1 %174, label %175, label %210

175:                                              ; preds = %167
  %176 = load ptr, ptr %33, align 8
  %177 = getelementptr inbounds %struct._zend_ini_entry, ptr %176, i32 0, i32 5
  %178 = load ptr, ptr %177, align 8
  store ptr %178, ptr %18, align 8
  %179 = load ptr, ptr %18, align 8
  %180 = getelementptr inbounds %struct._zend_refcounted_h, ptr %179, i32 0, i32 1
  %181 = load i32, ptr %180, align 4
  store i32 %181, ptr %12, align 4
  %182 = load i32, ptr %12, align 4
  %183 = and i32 %182, 1008
  %184 = and i32 %183, 64
  %185 = icmp ne i32 %184, 0
  br i1 %185, label %209, label %186

186:                                              ; preds = %175
  %187 = load ptr, ptr %18, align 8
  store ptr %187, ptr %8, align 8
  %188 = load ptr, ptr %8, align 8
  %189 = load i32, ptr %188, align 4
  %190 = icmp ugt i32 %189, 0
  call void @llvm.assume(i1 %190)
  %191 = load ptr, ptr %8, align 8
  %192 = load i32, ptr %191, align 4
  %193 = add i32 %192, -1
  store i32 %193, ptr %191, align 4
  %194 = icmp eq i32 %193, 0
  br i1 %194, label %195, label %208

195:                                              ; preds = %186
  %196 = load ptr, ptr %18, align 8
  %197 = getelementptr inbounds %struct._zend_refcounted_h, ptr %196, i32 0, i32 1
  %198 = load i32, ptr %197, align 4
  store i32 %198, ptr %13, align 4
  %199 = load i32, ptr %13, align 4
  %200 = and i32 %199, 1008
  %201 = and i32 %200, 128
  %202 = icmp ne i32 %201, 0
  br i1 %202, label %203, label %205

203:                                              ; preds = %195
  %204 = load ptr, ptr %18, align 8
  call void @free(ptr noundef %204) #13
  br label %207

205:                                              ; preds = %195
  %206 = load ptr, ptr %18, align 8
  call void @_efree(ptr noundef %206) #13
  br label %207

207:                                              ; preds = %205, %203
  br label %208

208:                                              ; preds = %207, %186
  br label %209

209:                                              ; preds = %208, %175
  br label %210

210:                                              ; preds = %209, %167, %164
  %211 = load ptr, ptr %34, align 8
  %212 = load ptr, ptr %33, align 8
  %213 = getelementptr inbounds %struct._zend_ini_entry, ptr %212, i32 0, i32 5
  store ptr %211, ptr %213, align 8
  br label %247

214:                                              ; preds = %146
  %215 = load ptr, ptr %34, align 8
  store ptr %215, ptr %19, align 8
  %216 = load ptr, ptr %19, align 8
  %217 = getelementptr inbounds %struct._zend_refcounted_h, ptr %216, i32 0, i32 1
  %218 = load i32, ptr %217, align 4
  store i32 %218, ptr %10, align 4
  %219 = load i32, ptr %10, align 4
  %220 = and i32 %219, 1008
  %221 = and i32 %220, 64
  %222 = icmp ne i32 %221, 0
  br i1 %222, label %246, label %223

223:                                              ; preds = %214
  %224 = load ptr, ptr %19, align 8
  store ptr %224, ptr %7, align 8
  %225 = load ptr, ptr %7, align 8
  %226 = load i32, ptr %225, align 4
  %227 = icmp ugt i32 %226, 0
  call void @llvm.assume(i1 %227)
  %228 = load ptr, ptr %7, align 8
  %229 = load i32, ptr %228, align 4
  %230 = add i32 %229, -1
  store i32 %230, ptr %228, align 4
  %231 = icmp eq i32 %230, 0
  br i1 %231, label %232, label %245

232:                                              ; preds = %223
  %233 = load ptr, ptr %19, align 8
  %234 = getelementptr inbounds %struct._zend_refcounted_h, ptr %233, i32 0, i32 1
  %235 = load i32, ptr %234, align 4
  store i32 %235, ptr %11, align 4
  %236 = load i32, ptr %11, align 4
  %237 = and i32 %236, 1008
  %238 = and i32 %237, 128
  %239 = icmp ne i32 %238, 0
  br i1 %239, label %240, label %242

240:                                              ; preds = %232
  %241 = load ptr, ptr %19, align 8
  call void @free(ptr noundef %241) #13
  br label %244

242:                                              ; preds = %232
  %243 = load ptr, ptr %19, align 8
  call void @_efree(ptr noundef %243) #13
  br label %244

244:                                              ; preds = %242, %240
  br label %245

245:                                              ; preds = %244, %223
  br label %246

246:                                              ; preds = %245, %214
  store i32 -1, ptr %27, align 4
  br label %248

247:                                              ; preds = %210
  store i32 0, ptr %27, align 4
  br label %248

248:                                              ; preds = %247, %246, %84, %55
  %249 = load i32, ptr %27, align 4
  ret i32 %249
}