; Function Attrs: nounwind uwtable
define noundef i32 @zend_alter_ini_entry_ex(ptr noundef %0, ptr noundef %1, i32 noundef %2, i32 noundef %3, i1 noundef zeroext %4) local_unnamed_addr #0 {
  %6 = alloca %struct._zval_struct, align 8
  %7 = load ptr, ptr getelementptr inbounds (%struct._zend_executor_globals, ptr @executor_globals, i64 0, i32 46), align 8
  %8 = tail call ptr @zend_hash_find(ptr noundef %7, ptr noundef %0) #20
  %.not = icmp eq ptr %8, null
  br i1 %.not, label %.thread, label %9

9:                                                ; preds = %5
  %10 = load ptr, ptr %8, align 8, !nonnull !5, !noundef !5
  %11 = getelementptr inbounds i8, ptr %10, i64 68
  %12 = load i8, ptr %11, align 4
  %13 = getelementptr inbounds i8, ptr %10, i64 70
  %14 = load i8, ptr %13, align 2
  %.not74 = icmp eq i8 %14, 0
  %15 = icmp eq i32 %3, 4
  %16 = icmp eq i32 %2, 4
  %or.cond = and i1 %16, %15
  br i1 %or.cond, label %17, label %18

17:                                               ; preds = %9
  store i8 4, ptr %11, align 4
  br label %18

18:                                               ; preds = %17, %9
  %19 = phi i8 [ 4, %17 ], [ %12, %9 ]
  br i1 %4, label %23, label %20

20:                                               ; preds = %18
  %21 = zext i8 %19 to i32
  %22 = and i32 %21, %2
  %.not75 = icmp eq i32 %22, 0
  br i1 %.not75, label %.thread, label %23

23:                                               ; preds = %20, %18
  %24 = load ptr, ptr getelementptr inbounds (%struct._zend_executor_globals, ptr @executor_globals, i64 0, i32 47), align 8
  %.not76 = icmp eq ptr %24, null
  br i1 %.not76, label %25, label %27

25:                                               ; preds = %23
  %26 = tail call noalias ptr @_emalloc_56() #20
  store ptr %26, ptr getelementptr inbounds (%struct._zend_executor_globals, ptr @executor_globals, i64 0, i32 47), align 8
  tail call void @_zend_hash_init(ptr noundef %26, i32 noundef 8, ptr noundef null, i1 noundef zeroext false) #20
  br label %27

27:                                               ; preds = %25, %23
  br i1 %.not74, label %28, label %40

28:                                               ; preds = %27
  %29 = getelementptr inbounds i8, ptr %10, i64 40
  %30 = load ptr, ptr %29, align 8
  %31 = getelementptr inbounds i8, ptr %10, i64 48
  store ptr %30, ptr %31, align 8
  %32 = getelementptr inbounds i8, ptr %10, i64 69
  store i8 %12, ptr %32, align 1
  store i8 1, ptr %13, align 2
  %33 = load ptr, ptr getelementptr inbounds (%struct._zend_executor_globals, ptr @executor_globals, i64 0, i32 47), align 8
  %34 = load ptr, ptr %10, align 8
  store ptr %10, ptr %6, align 8
  %35 = getelementptr inbounds i8, ptr %6, i64 8
  store i32 13, ptr %35, align 8
  %36 = call ptr @zend_hash_add(ptr noundef %33, ptr noundef %34, ptr noundef nonnull %6) #20
  %.not77 = icmp eq ptr %36, null
  br i1 %.not77, label %40, label %37

37:                                               ; preds = %28
  %38 = load ptr, ptr %36, align 8
  %39 = icmp ne ptr %38, null
  call void @llvm.assume(i1 %39)
  br label %40

40:                                               ; preds = %28, %37, %27
  %41 = getelementptr inbounds i8, ptr %1, i64 4
  %42 = load i32, ptr %41, align 4
  %43 = and i32 %42, 64
  %.not78 = icmp eq i32 %43, 0
  br i1 %.not78, label %44, label %47

44:                                               ; preds = %40
  %45 = load i32, ptr %1, align 4
  %46 = add i32 %45, 1
  store i32 %46, ptr %1, align 4
  br label %47

47:                                               ; preds = %44, %40
  %48 = getelementptr inbounds i8, ptr %10, i64 8
  %49 = load ptr, ptr %48, align 8
  %.not79 = icmp eq ptr %49, null
  br i1 %.not79, label %59, label %50

50:                                               ; preds = %47
  %51 = getelementptr inbounds i8, ptr %10, i64 16
  %52 = load ptr, ptr %51, align 8
  %53 = getelementptr inbounds i8, ptr %10, i64 24
  %54 = load ptr, ptr %53, align 8
  %55 = getelementptr inbounds i8, ptr %10, i64 32
  %56 = load ptr, ptr %55, align 8
  %57 = call i32 %49(ptr noundef nonnull %10, ptr noundef nonnull %1, ptr noundef %52, ptr noundef %54, ptr noundef %56, i32 noundef %3) #20
  %58 = icmp eq i32 %57, 0
  br i1 %58, label %59, label %80

59:                                               ; preds = %50, %47
  br i1 %.not74, label %78, label %60

60:                                               ; preds = %59
  %61 = getelementptr inbounds i8, ptr %10, i64 48
  %62 = load ptr, ptr %61, align 8
  %63 = getelementptr inbounds i8, ptr %10, i64 40
  %64 = load ptr, ptr %63, align 8
  %.not82 = icmp eq ptr %62, %64
  br i1 %.not82, label %78, label %65

65:                                               ; preds = %60
  %66 = getelementptr inbounds i8, ptr %64, i64 4
  %67 = load i32, ptr %66, align 4
  %68 = and i32 %67, 64
  %.not83 = icmp eq i32 %68, 0
  br i1 %.not83, label %69, label %78

69:                                               ; preds = %65
  %70 = load i32, ptr %64, align 4
  %71 = icmp ne i32 %70, 0
  call void @llvm.assume(i1 %71)
  %72 = add i32 %70, -1
  store i32 %72, ptr %64, align 4
  %73 = icmp eq i32 %72, 0
  br i1 %73, label %74, label %78

74:                                               ; preds = %69
  %75 = and i32 %67, 128
  %.not84 = icmp eq i32 %75, 0
  br i1 %.not84, label %77, label %76

76:                                               ; preds = %74
  call void @free(ptr noundef nonnull %64) #20
  br label %78

77:                                               ; preds = %74
  call void @_efree(ptr noundef nonnull %64) #20
  br label %78

78:                                               ; preds = %65, %76, %77, %69, %60, %59
  %79 = getelementptr inbounds i8, ptr %10, i64 40
  store ptr %1, ptr %79, align 8
  br label %.thread

80:                                               ; preds = %50
  %81 = load i32, ptr %41, align 4
  %82 = and i32 %81, 64
  %.not80 = icmp eq i32 %82, 0
  br i1 %.not80, label %83, label %.thread

83:                                               ; preds = %80
  %84 = load i32, ptr %1, align 4
  %85 = icmp ne i32 %84, 0
  call void @llvm.assume(i1 %85)
  %86 = add i32 %84, -1
  store i32 %86, ptr %1, align 4
  %87 = icmp eq i32 %86, 0
  br i1 %87, label %88, label %.thread

88:                                               ; preds = %83
  %89 = and i32 %81, 128
  %.not81 = icmp eq i32 %89, 0
  br i1 %.not81, label %91, label %90

90:                                               ; preds = %88
  call void @free(ptr noundef nonnull %1) #20
  br label %.thread

91:                                               ; preds = %88
  call void @_efree(ptr noundef nonnull %1) #20
  br label %.thread

.thread:                                          ; preds = %5, %80, %90, %91, %83, %20, %78
  %.069 = phi i32 [ 0, %78 ], [ -1, %20 ], [ -1, %83 ], [ -1, %91 ], [ -1, %90 ], [ -1, %80 ], [ -1, %5 ]
  ret i32 %.069
}